; Function Attrs: nounwind uwtable
define internal void @x942kdf_free(ptr noundef %0) #0 {
  %.not = icmp eq ptr %0, null
  br i1 %.not, label %3, label %2

2:                                                ; preds = %1
  tail call void @x942kdf_reset(ptr noundef nonnull %0)
  tail call void @CRYPTO_free(ptr noundef nonnull %0, ptr noundef nonnull @.str, i32 noundef 374) #7
  br label %3

3:                                                ; preds = %2, %1
  ret void
}